Certificate:
    Data:
        Version: 1 (0x0)
        Serial Number:
            55:d0:c2:da:80:d3:07:12:f8:43:59:3c:d5:5f:1a:7e:1d:66:08:d3
        Signature Algorithm: sha256WithRSAEncryption
        Issuer: C=US, ST=Texas, O=Openstack, CN=*.openstack.maas
        Validity
            Not Before: Aug 30 13:27:14 2022 GMT
            Not After : Aug 27 13:27:14 2032 GMT
        Subject: C=US, ST=Texas, O=Openstack, CN=*.openstack.maas
        Subject Public Key Info:
            Public Key Algorithm: rsaEncryption
                RSA Public-Key: (2048 bit)
                Modulus:
                    00:c7:95:24:23:a9:1c:84:3c:59:d4:cb:18:35:c3:
                    9a:26:78:0f:d0:71:0d:e8:eb:11:32:51:7a:05:e1:
                    8f:ff:a9:2d:45:a0:bc:9f:67:19:6a:41:92:49:11:
                    d5:09:04:c6:2c:ed:fb:fc:55:58:bf:e3:61:dc:e4:
                    75:82:e9:95:f4:6f:33:74:b9:10:0d:06:7c:c0:5a:
                    b0:40:0d:b6:1d:c1:81:bf:25:0b:48:f0:0c:2e:05:
                    84:57:a5:c2:ef:6e:10:55:0b:e4:ac:45:c2:c4:ff:
                    ee:4b:77:61:92:6c:23:97:d9:61:70:85:ad:88:0d:
                    41:b7:ae:31:4d:f7:af:34:4f:a2:40:0c:b8:4f:a7:
                    31:e2:54:6c:df:28:ff:8e:4d:de:e1:f2:7e:c4:cc:
                    ed:2b:70:f5:0b:03:09:59:7a:0b:e8:a0:5c:22:71:
                    82:76:5f:7e:28:29:91:f6:5c:3a:81:43:e8:9b:fb:
                    c6:0a:e8:2b:ca:32:61:f5:37:c6:3a:d0:f1:58:12:
                    c0:c6:41:ae:26:79:dc:b7:12:14:77:b1:30:41:57:
                    8f:de:ce:b8:e8:f8:86:36:df:84:42:a2:1b:79:04:
                    43:73:08:fc:25:c1:06:a4:8b:45:7a:0f:60:91:9b:
                    c5:f4:83:30:a9:cf:84:36:ea:66:b0:45:f6:bd:80:
                    2c:c3
                Exponent: 65537 (0x10001)
    Signature Algorithm: sha256WithRSAEncryption
         24:17:72:07:23:8f:ac:d9:73:78:c5:f2:da:3a:fd:06:ae:46:
         84:7b:2e:20:f4:c2:16:05:f0:aa:3e:35:01:6f:be:d1:d4:78:
         77:8b:43:08:31:14:45:df:c8:a7:27:e8:72:90:4a:aa:45:2a:
         19:74:82:26:5e:50:21:2e:63:f8:d0:27:d3:0b:67:a5:e0:17:
         7b:8c:74:fb:dc:00:51:14:5c:5f:c3:61:c6:b8:83:cb:eb:d2:
         79:02:42:14:5f:1a:29:e5:65:15:3f:2f:fd:3c:77:76:6c:5d:
         82:ad:e8:49:3a:bc:de:a4:6d:72:82:fc:14:f9:3d:aa:99:ea:
         06:46:13:6f:dd:89:8b:f7:52:05:ad:ba:48:a3:22:64:cc:18:
         98:4e:8e:6e:ab:28:d6:86:3b:dc:d3:c7:94:24:f8:00:aa:51:
         07:99:19:b2:ca:f2:30:4e:dd:07:d8:fb:2e:41:b8:89:57:30:
         77:17:4b:10:9d:58:27:ac:22:00:c2:c4:26:86:c5:b7:a3:33:
         39:be:8e:f4:3d:4e:c5:c3:3a:49:f4:37:c6:86:4e:62:24:1a:
         5e:63:3c:f7:f1:05:7d:9b:9c:97:22:2b:80:95:86:fa:a9:d8:
         cc:67:0c:24:45:89:3d:86:cf:af:6a:52:02:64:76:c4:82:2f:
         05:35:43:5b
-----BEGIN CERTIFICATE-----
MIIDHzCCAgcCFFXQwtqA0wcS+ENZPNVfGn4dZgjTMA0GCSqGSIb3DQEBCwUAMEwx
CzAJBgNVBAYTAlVTMQ4wDAYDVQQIDAVUZXhhczESMBAGA1UECgwJT3BlbnN0YWNr
MRkwFwYDVQQDDBAqLm9wZW5zdGFjay5tYWFzMB4XDTIyMDgzMDEzMjcxNFoXDTMy
MDgyNzEzMjcxNFowTDELMAkGA1UEBhMCVVMxDjAMBgNVBAgMBVRleGFzMRIwEAYD
VQQKDAlPcGVuc3RhY2sxGTAXBgNVBAMMECoub3BlbnN0YWNrLm1hYXMwggEiMA0G
CSqGSIb3DQEBAQUAA4IBDwAwggEKAoIBAQDHlSQjqRyEPFnUyxg1w5omeA/QcQ3o
6xEyUXoF4Y//qS1FoLyfZxlqQZJJEdUJBMYs7fv8VVi/42Hc5HWC6ZX0bzN0uRAN
BnzAWrBADbYdwYG/JQtI8AwuBYRXpcLvbhBVC+SsRcLE/+5Ld2GSbCOX2WFwha2I
DUG3rjFN9680T6JADLhPpzHiVGzfKP+OTd7h8n7EzO0rcPULAwlZegvooFwicYJ2
X34oKZH2XDqBQ+ib+8YK6CvKMmH1N8Y60PFYEsDGQa4medy3EhR3sTBBV4/ezrjo
+IY234RCoht5BENzCPwlwQaki0V6D2CRm8X0gzCpz4Q26mawRfa9gCzDAgMBAAEw
DQYJKoZIhvcNAQELBQADggEBACQXcgcjj6zZc3jF8to6/QauRoR7LiD0whYF8Ko+
NQFvvtHUeHeLQwgxFEXfyKcn6HKQSqpFKhl0giZeUCEuY/jQJ9MLZ6XgF3uMdPvc
AFEUXF/DYca4g8vr0nkCQhRfGinlZRU/L/08d3ZsXYKt6Ek6vN6kbXKC/BT5PaqZ
6gZGE2/diYv3UgWtukijImTMGJhOjm6rKNaGO9zTx5Qk+ACqUQeZGbLK8jBO3QfY
+y5BuIlXMHcXSxCdWCesIgDCxCaGxbejMzm+jvQ9TsXDOkn0N8aGTmIkGl5jPPfx
BX2bnJciK4CVhvqp2MxnDCRFiT2Gz69qUgJkdsSCLwU1Q1s=
-----END CERTIFICATE-----
